---
triple:          'arm64-apple-darwin'
binary-path:     '/Users/fxh/Documents/cpp/hash/383'
relocations:
  - { offsetInCU: 0x5C, offset: 0x5C, size: 0x8, addend: 0x0, symName: __ZNSt3__1L19piecewise_constructE, symObjAddr: 0x35DE, symBinAddr: 0x100003CC6, symSize: 0x0 }
  - { offsetInCU: 0x66C6, offset: 0x66C6, size: 0x8, addend: 0x0, symName: __ZNSt3__1neB7v160006IPcEEbRKNS_11__wrap_iterIT_EES6_, symObjAddr: 0x448, symBinAddr: 0x1000009EC, symSize: 0x34 }
  - { offsetInCU: 0x6709, offset: 0x6709, size: 0x8, addend: 0x0, symName: __ZNSt3__1neB7v160006ERKNS_19__hash_map_iteratorINS_15__hash_iteratorIPNS_11__hash_nodeINS_17__hash_value_typeIciEEPvEEEEEESB_, symObjAddr: 0x5A4, symBinAddr: 0x100000B48, symSize: 0x30 }
  - { offsetInCU: 0x6746, offset: 0x6746, size: 0x8, addend: 0x0, symName: __ZNSt3__119__debug_db_insert_cB7v160006INS_13unordered_mapIciNS_4hashIcEENS_8equal_toIcEENS_9allocatorINS_4pairIKciEEEEEEEEvPT_, symObjAddr: 0x6BC, symBinAddr: 0x100000C60, symSize: 0x10 }
  - { offsetInCU: 0x67AA, offset: 0x67AA, size: 0x8, addend: 0x0, symName: __ZNSt3__1eqB7v160006IPcEEbRKNS_11__wrap_iterIT_EES6_, symObjAddr: 0xF70, symBinAddr: 0x100001514, symSize: 0x48 }
  - { offsetInCU: 0x6824, offset: 0x6824, size: 0x8, addend: 0x0, symName: __ZNSt3__116forward_as_tupleB7v160006IJRKcEEENS_5tupleIJDpOT_EEES6_, symObjAddr: 0x14A0, symBinAddr: 0x100001A44, symSize: 0x2C }
  - { offsetInCU: 0x685D, offset: 0x685D, size: 0x8, addend: 0x0, symName: __ZNSt3__116forward_as_tupleB7v160006IJEEENS_5tupleIJDpOT_EEES4_, symObjAddr: 0x14CC, symBinAddr: 0x100001A70, symSize: 0x4 }
  - { offsetInCU: 0x6881, offset: 0x6881, size: 0x8, addend: 0x0, symName: __ZNSt3__116__constrain_hashB7v160006Emm, symObjAddr: 0x1594, symBinAddr: 0x100001B38, symSize: 0x98 }
  - { offsetInCU: 0x68BB, offset: 0x68BB, size: 0x8, addend: 0x0, symName: __ZNSt3__13maxB7v160006ImEERKT_S3_S3_, symObjAddr: 0x18D8, symBinAddr: 0x100001E7C, symSize: 0x2C }
  - { offsetInCU: 0x68FE, offset: 0x68FE, size: 0x8, addend: 0x0, symName: __ZNSt3__116__is_hash_power2B7v160006Em, symObjAddr: 0x1904, symBinAddr: 0x100001EA8, symSize: 0x50 }
  - { offsetInCU: 0x697B, offset: 0x697B, size: 0x8, addend: 0x0, symName: __ZNSt3__117__libcpp_allocateB7v160006Emm, symObjAddr: 0x1F18, symBinAddr: 0x1000024BC, symSize: 0x28 }
  - { offsetInCU: 0x69B8, offset: 0x69B8, size: 0x8, addend: 0x0, symName: __ZNSt3__121__libcpp_operator_newB7v160006IJmEEEPvDpT_, symObjAddr: 0x1F58, symBinAddr: 0x1000024FC, symSize: 0x24 }
  - { offsetInCU: 0x69FC, offset: 0x69FC, size: 0x8, addend: 0x0, symName: __ZNSt3__13getB7v160006ILm0EJRKcEEERNS_13tuple_elementIXT_ENS_5tupleIJDpT0_EEEE4typeERS7_, symObjAddr: 0x21D4, symBinAddr: 0x100002778, symSize: 0x24 }
  - { offsetInCU: 0x6A3F, offset: 0x6A3F, size: 0x8, addend: 0x0, symName: __ZNSt3__116__next_hash_pow2B7v160006Em, symObjAddr: 0x26F4, symBinAddr: 0x100002C98, symSize: 0x6C }
  - { offsetInCU: 0x6A6B, offset: 0x6A6B, size: 0x8, addend: 0x0, symName: __ZNSt3__125__debug_db_invalidate_allB7v160006INS_12__hash_tableINS_17__hash_value_typeIciEENS_22__unordered_map_hasherIcS3_NS_4hashIcEENS_8equal_toIcEELb1EEENS_21__unordered_map_equalIcS3_S8_S6_Lb1EEENS_9allocatorIS3_EEEEEEvPT_, symObjAddr: 0x2760, symBinAddr: 0x100002D04, symSize: 0x10 }
  - { offsetInCU: 0x6AB8, offset: 0x6AB8, size: 0x8, addend: 0x0, symName: __ZNSt3__119__libcpp_deallocateB7v160006EPvmm, symObjAddr: 0x29F8, symBinAddr: 0x100002F9C, symSize: 0x30 }
  - { offsetInCU: 0x6B00, offset: 0x6B00, size: 0x8, addend: 0x0, symName: __ZNSt3__127__do_deallocate_handle_sizeB7v160006IJEEEvPvmDpT_, symObjAddr: 0x2A28, symBinAddr: 0x100002FCC, symSize: 0x28 }
  - { offsetInCU: 0x6B3E, offset: 0x6B3E, size: 0x8, addend: 0x0, symName: __ZNSt3__124__libcpp_operator_deleteB7v160006IJPvEEEvDpT_, symObjAddr: 0x2A50, symBinAddr: 0x100002FF4, symSize: 0x24 }
  - { offsetInCU: 0x6B73, offset: 0x6B73, size: 0x8, addend: 0x0, symName: __ZNSt3__112__libcpp_clzB7v160006Em, symObjAddr: 0x2B28, symBinAddr: 0x1000030CC, symSize: 0x1C }
  - { offsetInCU: 0x6B9F, offset: 0x6B9F, size: 0x8, addend: 0x0, symName: __ZNSt3__13maxB7v160006ImNS_6__lessImmEEEERKT_S5_S5_T0_, symObjAddr: 0x2B44, symBinAddr: 0x1000030E8, symSize: 0x54 }
  - { offsetInCU: 0x6C8B, offset: 0x6C8B, size: 0x8, addend: 0x0, symName: __ZNSt3__1neB7v160006ERKNS_15__hash_iteratorIPNS_11__hash_nodeINS_17__hash_value_typeIciEEPvEEEES9_, symObjAddr: 0x3040, symBinAddr: 0x1000035E4, symSize: 0x34 }
  - { offsetInCU: 0x6CC8, offset: 0x6CC8, size: 0x8, addend: 0x0, symName: __ZNSt3__1eqB7v160006ERKNS_15__hash_iteratorIPNS_11__hash_nodeINS_17__hash_value_typeIciEEPvEEEES9_, symObjAddr: 0x3074, symBinAddr: 0x100003618, symSize: 0x30 }
  - { offsetInCU: 0x6D05, offset: 0x6D05, size: 0x8, addend: 0x0, symName: __ZNSt3__118__debug_db_erase_cB7v160006INS_12__hash_tableINS_17__hash_value_typeIciEENS_22__unordered_map_hasherIcS3_NS_4hashIcEENS_8equal_toIcEELb1EEENS_21__unordered_map_equalIcS3_S8_S6_Lb1EEENS_9allocatorIS3_EEEEEEvPT_, symObjAddr: 0x3218, symBinAddr: 0x1000037BC, symSize: 0x10 }
  - { offsetInCU: 0x6D36, offset: 0x6D36, size: 0x8, addend: 0x0, symName: __ZNSt3__119__debug_db_insert_cB7v160006INS_12basic_stringIcNS_11char_traitsIcEENS_9allocatorIcEEEEEEvPT_, symObjAddr: 0x33C0, symBinAddr: 0x100003964, symSize: 0x10 }
  - { offsetInCU: 0x6D67, offset: 0x6D67, size: 0x8, addend: 0x0, symName: __ZNSt3__118__constexpr_strlenB7v160006EPKc, symObjAddr: 0x348C, symBinAddr: 0x100003A30, symSize: 0x24 }
  - { offsetInCU: 0x6E36, offset: 0x6E36, size: 0x8, addend: 0x0, symName: __ZSt28__throw_bad_array_new_lengthB7v160006v, symObjAddr: 0x1EE4, symBinAddr: 0x100002488, symSize: 0x34 }
  - { offsetInCU: 0x9490, offset: 0x9490, size: 0x8, addend: 0x0, symName: _main, symObjAddr: 0x0, symBinAddr: 0x1000005A4, symSize: 0xCC }
  - { offsetInCU: 0x9669, offset: 0x9669, size: 0x8, addend: 0x0, symName: __ZN8Solution12canConstructENSt3__112basic_stringIcNS0_11char_traitsIcEENS0_9allocatorIcEEEES6_, symObjAddr: 0xCC, symBinAddr: 0x100000670, symSize: 0x27C }
  - { offsetInCU: 0x97BC, offset: 0x97BC, size: 0x8, addend: 0x0, symName: __ZNSt3__112basic_stringIcNS_11char_traitsIcEENS_9allocatorIcEEEC1B7v160006IDnEEPKc, symObjAddr: 0x348, symBinAddr: 0x1000008EC, symSize: 0x34 }
  - { offsetInCU: 0x9898, offset: 0x9898, size: 0x8, addend: 0x0, symName: __ZNSt3__113unordered_mapIciNS_4hashIcEENS_8equal_toIcEENS_9allocatorINS_4pairIKciEEEEEC1B7v160006Ev, symObjAddr: 0x37C, symBinAddr: 0x100000920, symSize: 0x2C }
  - { offsetInCU: 0x98C0, offset: 0x98C0, size: 0x8, addend: 0x0, symName: __ZNSt3__112basic_stringIcNS_11char_traitsIcEENS_9allocatorIcEEE5beginB7v160006Ev, symObjAddr: 0x3A8, symBinAddr: 0x10000094C, symSize: 0x4C }
  - { offsetInCU: 0x98E4, offset: 0x98E4, size: 0x8, addend: 0x0, symName: __ZNSt3__112basic_stringIcNS_11char_traitsIcEENS_9allocatorIcEEE3endB7v160006Ev, symObjAddr: 0x3F4, symBinAddr: 0x100000998, symSize: 0x54 }
  - { offsetInCU: 0x9908, offset: 0x9908, size: 0x8, addend: 0x0, symName: __ZNKSt3__111__wrap_iterIPcEdeB7v160006Ev, symObjAddr: 0x47C, symBinAddr: 0x100000A20, symSize: 0x18 }
  - { offsetInCU: 0x992C, offset: 0x992C, size: 0x8, addend: 0x0, symName: __ZNSt3__113unordered_mapIciNS_4hashIcEENS_8equal_toIcEENS_9allocatorINS_4pairIKciEEEEEixERS7_, symObjAddr: 0x494, symBinAddr: 0x100000A38, symSize: 0x80 }
  - { offsetInCU: 0x9961, offset: 0x9961, size: 0x8, addend: 0x0, symName: __ZNSt3__111__wrap_iterIPcEppB7v160006Ev, symObjAddr: 0x514, symBinAddr: 0x100000AB8, symSize: 0x20 }
  - { offsetInCU: 0x9985, offset: 0x9985, size: 0x8, addend: 0x0, symName: __ZNSt3__113unordered_mapIciNS_4hashIcEENS_8equal_toIcEENS_9allocatorINS_4pairIKciEEEEE5beginB7v160006Ev, symObjAddr: 0x534, symBinAddr: 0x100000AD8, symSize: 0x38 }
  - { offsetInCU: 0x99A9, offset: 0x99A9, size: 0x8, addend: 0x0, symName: __ZNSt3__113unordered_mapIciNS_4hashIcEENS_8equal_toIcEENS_9allocatorINS_4pairIKciEEEEE3endB7v160006Ev, symObjAddr: 0x56C, symBinAddr: 0x100000B10, symSize: 0x38 }
  - { offsetInCU: 0x99CD, offset: 0x99CD, size: 0x8, addend: 0x0, symName: __ZNKSt3__119__hash_map_iteratorINS_15__hash_iteratorIPNS_11__hash_nodeINS_17__hash_value_typeIciEEPvEEEEEdeB7v160006Ev, symObjAddr: 0x5D4, symBinAddr: 0x100000B78, symSize: 0x28 }
  - { offsetInCU: 0x99F1, offset: 0x99F1, size: 0x8, addend: 0x0, symName: __ZNSt3__119__hash_map_iteratorINS_15__hash_iteratorIPNS_11__hash_nodeINS_17__hash_value_typeIciEEPvEEEEEppB7v160006Ev, symObjAddr: 0x5FC, symBinAddr: 0x100000BA0, symSize: 0x2C }
  - { offsetInCU: 0x9A15, offset: 0x9A15, size: 0x8, addend: 0x0, symName: __ZNSt3__113unordered_mapIciNS_4hashIcEENS_8equal_toIcEENS_9allocatorINS_4pairIKciEEEEED1B7v160006Ev, symObjAddr: 0x628, symBinAddr: 0x100000BCC, symSize: 0x2C }
  - { offsetInCU: 0x9A3D, offset: 0x9A3D, size: 0x8, addend: 0x0, symName: __ZNSt3__113unordered_mapIciNS_4hashIcEENS_8equal_toIcEENS_9allocatorINS_4pairIKciEEEEEC2B7v160006Ev, symObjAddr: 0x654, symBinAddr: 0x100000BF8, symSize: 0x3C }
  - { offsetInCU: 0x9A65, offset: 0x9A65, size: 0x8, addend: 0x0, symName: __ZNSt3__112__hash_tableINS_17__hash_value_typeIciEENS_22__unordered_map_hasherIcS2_NS_4hashIcEENS_8equal_toIcEELb1EEENS_21__unordered_map_equalIcS2_S7_S5_Lb1EEENS_9allocatorIS2_EEEC1Ev, symObjAddr: 0x690, symBinAddr: 0x100000C34, symSize: 0x2C }
  - { offsetInCU: 0x9A8F, offset: 0x9A8F, size: 0x8, addend: 0x0, symName: __ZNSt3__112__hash_tableINS_17__hash_value_typeIciEENS_22__unordered_map_hasherIcS2_NS_4hashIcEENS_8equal_toIcEELb1EEENS_21__unordered_map_equalIcS2_S7_S5_Lb1EEENS_9allocatorIS2_EEEC2Ev, symObjAddr: 0x6D8, symBinAddr: 0x100000C7C, symSize: 0x7C }
  - { offsetInCU: 0x9AB9, offset: 0x9AB9, size: 0x8, addend: 0x0, symName: __ZNSt3__110unique_ptrIA_PNS_16__hash_node_baseIPNS_11__hash_nodeINS_17__hash_value_typeIciEEPvEEEENS_25__bucket_list_deallocatorINS_9allocatorIS9_EEEEEC1B7v160006ILb1EvEEv, symObjAddr: 0x754, symBinAddr: 0x100000CF8, symSize: 0x2C }
  - { offsetInCU: 0x9AEC, offset: 0x9AEC, size: 0x8, addend: 0x0, symName: __ZNSt3__117__compressed_pairINS_16__hash_node_baseIPNS_11__hash_nodeINS_17__hash_value_typeIciEEPvEEEENS_9allocatorIS6_EEEC1B7v160006ILb1EvEEv, symObjAddr: 0x780, symBinAddr: 0x100000D24, symSize: 0x2C }
  - { offsetInCU: 0x9B29, offset: 0x9B29, size: 0x8, addend: 0x0, symName: __ZNSt3__117__compressed_pairImNS_22__unordered_map_hasherIcNS_17__hash_value_typeIciEENS_4hashIcEENS_8equal_toIcEELb1EEEEC1B7v160006IiNS_18__default_init_tagEEEOT_OT0_, symObjAddr: 0x7AC, symBinAddr: 0x100000D50, symSize: 0x3C }
  - { offsetInCU: 0x9B84, offset: 0x9B84, size: 0x8, addend: 0x0, symName: __ZNSt3__117__compressed_pairIfNS_21__unordered_map_equalIcNS_17__hash_value_typeIciEENS_8equal_toIcEENS_4hashIcEELb1EEEEC1B7v160006IfNS_18__default_init_tagEEEOT_OT0_, symObjAddr: 0x7E8, symBinAddr: 0x100000D8C, symSize: 0x3C }
  - { offsetInCU: 0x9BDA, offset: 0x9BDA, size: 0x8, addend: 0x0, symName: __ZNSt3__110unique_ptrIA_PNS_16__hash_node_baseIPNS_11__hash_nodeINS_17__hash_value_typeIciEEPvEEEENS_25__bucket_list_deallocatorINS_9allocatorIS9_EEEEEC2B7v160006ILb1EvEEv, symObjAddr: 0x824, symBinAddr: 0x100000DC8, symSize: 0x3C }
  - { offsetInCU: 0x9C12, offset: 0x9C12, size: 0x8, addend: 0x0, symName: __ZNSt3__117__compressed_pairIPPNS_16__hash_node_baseIPNS_11__hash_nodeINS_17__hash_value_typeIciEEPvEEEENS_25__bucket_list_deallocatorINS_9allocatorIS9_EEEEEC1B7v160006INS_16__value_init_tagESH_EEOT_OT0_, symObjAddr: 0x860, symBinAddr: 0x100000E04, symSize: 0x3C }
  - { offsetInCU: 0x9C68, offset: 0x9C68, size: 0x8, addend: 0x0, symName: __ZNSt3__117__compressed_pairIPPNS_16__hash_node_baseIPNS_11__hash_nodeINS_17__hash_value_typeIciEEPvEEEENS_25__bucket_list_deallocatorINS_9allocatorIS9_EEEEEC2B7v160006INS_16__value_init_tagESH_EEOT_OT0_, symObjAddr: 0x89C, symBinAddr: 0x100000E40, symSize: 0x40 }
  - { offsetInCU: 0x9CBE, offset: 0x9CBE, size: 0x8, addend: 0x0, symName: __ZNSt3__122__compressed_pair_elemIPPNS_16__hash_node_baseIPNS_11__hash_nodeINS_17__hash_value_typeIciEEPvEEEELi0ELb0EEC2B7v160006ENS_16__value_init_tagE, symObjAddr: 0x8DC, symBinAddr: 0x100000E80, symSize: 0x18 }
  - { offsetInCU: 0x9CF0, offset: 0x9CF0, size: 0x8, addend: 0x0, symName: __ZNSt3__122__compressed_pair_elemINS_25__bucket_list_deallocatorINS_9allocatorIPNS_16__hash_node_baseIPNS_11__hash_nodeINS_17__hash_value_typeIciEEPvEEEEEEEELi1ELb0EEC2B7v160006ENS_16__value_init_tagE, symObjAddr: 0x8F4, symBinAddr: 0x100000E98, symSize: 0x2C }
  - { offsetInCU: 0x9D22, offset: 0x9D22, size: 0x8, addend: 0x0, symName: __ZNSt3__125__bucket_list_deallocatorINS_9allocatorIPNS_16__hash_node_baseIPNS_11__hash_nodeINS_17__hash_value_typeIciEEPvEEEEEEEC1B7v160006Ev, symObjAddr: 0x920, symBinAddr: 0x100000EC4, symSize: 0x2C }
  - { offsetInCU: 0x9D4A, offset: 0x9D4A, size: 0x8, addend: 0x0, symName: __ZNSt3__125__bucket_list_deallocatorINS_9allocatorIPNS_16__hash_node_baseIPNS_11__hash_nodeINS_17__hash_value_typeIciEEPvEEEEEEEC2B7v160006Ev, symObjAddr: 0x94C, symBinAddr: 0x100000EF0, symSize: 0x40 }
  - { offsetInCU: 0x9D72, offset: 0x9D72, size: 0x8, addend: 0x0, symName: __ZNSt3__117__compressed_pairImNS_9allocatorIPNS_16__hash_node_baseIPNS_11__hash_nodeINS_17__hash_value_typeIciEEPvEEEEEEEC1B7v160006IiNS_18__default_init_tagEEEOT_OT0_, symObjAddr: 0x98C, symBinAddr: 0x100000F30, symSize: 0x3C }
  - { offsetInCU: 0x9DC8, offset: 0x9DC8, size: 0x8, addend: 0x0, symName: __ZNSt3__117__compressed_pairImNS_9allocatorIPNS_16__hash_node_baseIPNS_11__hash_nodeINS_17__hash_value_typeIciEEPvEEEEEEEC2B7v160006IiNS_18__default_init_tagEEEOT_OT0_, symObjAddr: 0x9C8, symBinAddr: 0x100000F6C, symSize: 0x40 }
  - { offsetInCU: 0x9E1E, offset: 0x9E1E, size: 0x8, addend: 0x0, symName: __ZNSt3__122__compressed_pair_elemImLi0ELb0EEC2B7v160006IivEEOT_, symObjAddr: 0xA08, symBinAddr: 0x100000FAC, symSize: 0x24 }
  - { offsetInCU: 0x9E5E, offset: 0x9E5E, size: 0x8, addend: 0x0, symName: __ZNSt3__122__compressed_pair_elemINS_9allocatorIPNS_16__hash_node_baseIPNS_11__hash_nodeINS_17__hash_value_typeIciEEPvEEEEEELi1ELb1EEC2B7v160006ENS_18__default_init_tagE, symObjAddr: 0xA2C, symBinAddr: 0x100000FD0, symSize: 0x2C }
  - { offsetInCU: 0x9E90, offset: 0x9E90, size: 0x8, addend: 0x0, symName: __ZNSt3__19allocatorIPNS_16__hash_node_baseIPNS_11__hash_nodeINS_17__hash_value_typeIciEEPvEEEEEC2B7v160006Ev, symObjAddr: 0xA58, symBinAddr: 0x100000FFC, symSize: 0x2C }
  - { offsetInCU: 0x9EB8, offset: 0x9EB8, size: 0x8, addend: 0x0, symName: __ZNSt3__116__non_trivial_ifILb1ENS_9allocatorIPNS_16__hash_node_baseIPNS_11__hash_nodeINS_17__hash_value_typeIciEEPvEEEEEEEC2B7v160006Ev, symObjAddr: 0xA84, symBinAddr: 0x100001028, symSize: 0x14 }
  - { offsetInCU: 0x9EE0, offset: 0x9EE0, size: 0x8, addend: 0x0, symName: __ZNSt3__117__compressed_pairINS_16__hash_node_baseIPNS_11__hash_nodeINS_17__hash_value_typeIciEEPvEEEENS_9allocatorIS6_EEEC2B7v160006ILb1EvEEv, symObjAddr: 0xA98, symBinAddr: 0x10000103C, symSize: 0x34 }
  - { offsetInCU: 0x9F13, offset: 0x9F13, size: 0x8, addend: 0x0, symName: __ZNSt3__122__compressed_pair_elemINS_16__hash_node_baseIPNS_11__hash_nodeINS_17__hash_value_typeIciEEPvEEEELi0ELb0EEC2B7v160006ENS_16__value_init_tagE, symObjAddr: 0xACC, symBinAddr: 0x100001070, symSize: 0x2C }
  - { offsetInCU: 0x9F45, offset: 0x9F45, size: 0x8, addend: 0x0, symName: __ZNSt3__122__compressed_pair_elemINS_9allocatorINS_11__hash_nodeINS_17__hash_value_typeIciEEPvEEEELi1ELb1EEC2B7v160006ENS_16__value_init_tagE, symObjAddr: 0xAF8, symBinAddr: 0x10000109C, symSize: 0x2C }
  - { offsetInCU: 0x9F77, offset: 0x9F77, size: 0x8, addend: 0x0, symName: __ZNSt3__116__hash_node_baseIPNS_11__hash_nodeINS_17__hash_value_typeIciEEPvEEEC1B7v160006Ev, symObjAddr: 0xB24, symBinAddr: 0x1000010C8, symSize: 0x2C }
  - { offsetInCU: 0x9F9F, offset: 0x9F9F, size: 0x8, addend: 0x0, symName: __ZNSt3__116__hash_node_baseIPNS_11__hash_nodeINS_17__hash_value_typeIciEEPvEEEC2B7v160006Ev, symObjAddr: 0xB50, symBinAddr: 0x1000010F4, symSize: 0x18 }
  - { offsetInCU: 0x9FC7, offset: 0x9FC7, size: 0x8, addend: 0x0, symName: __ZNSt3__19allocatorINS_11__hash_nodeINS_17__hash_value_typeIciEEPvEEEC2B7v160006Ev, symObjAddr: 0xB68, symBinAddr: 0x10000110C, symSize: 0x2C }
  - { offsetInCU: 0x9FEF, offset: 0x9FEF, size: 0x8, addend: 0x0, symName: __ZNSt3__116__non_trivial_ifILb1ENS_9allocatorINS_11__hash_nodeINS_17__hash_value_typeIciEEPvEEEEEC2B7v160006Ev, symObjAddr: 0xB94, symBinAddr: 0x100001138, symSize: 0x14 }
  - { offsetInCU: 0xA017, offset: 0xA017, size: 0x8, addend: 0x0, symName: __ZNSt3__117__compressed_pairImNS_22__unordered_map_hasherIcNS_17__hash_value_typeIciEENS_4hashIcEENS_8equal_toIcEELb1EEEEC2B7v160006IiNS_18__default_init_tagEEEOT_OT0_, symObjAddr: 0xBA8, symBinAddr: 0x10000114C, symSize: 0x40 }
  - { offsetInCU: 0xA06D, offset: 0xA06D, size: 0x8, addend: 0x0, symName: __ZNSt3__122__compressed_pair_elemINS_22__unordered_map_hasherIcNS_17__hash_value_typeIciEENS_4hashIcEENS_8equal_toIcEELb1EEELi1ELb1EEC2B7v160006ENS_18__default_init_tagE, symObjAddr: 0xBE8, symBinAddr: 0x10000118C, symSize: 0x2C }
  - { offsetInCU: 0xA09F, offset: 0xA09F, size: 0x8, addend: 0x0, symName: __ZNSt3__122__unordered_map_hasherIcNS_17__hash_value_typeIciEENS_4hashIcEENS_8equal_toIcEELb1EEC2B7v160006Ev, symObjAddr: 0xC14, symBinAddr: 0x1000011B8, symSize: 0x14 }
  - { offsetInCU: 0xA0C7, offset: 0xA0C7, size: 0x8, addend: 0x0, symName: __ZNSt3__117__compressed_pairIfNS_21__unordered_map_equalIcNS_17__hash_value_typeIciEENS_8equal_toIcEENS_4hashIcEELb1EEEEC2B7v160006IfNS_18__default_init_tagEEEOT_OT0_, symObjAddr: 0xC28, symBinAddr: 0x1000011CC, symSize: 0x40 }
  - { offsetInCU: 0xA11D, offset: 0xA11D, size: 0x8, addend: 0x0, symName: __ZNSt3__122__compressed_pair_elemIfLi0ELb0EEC2B7v160006IfvEEOT_, symObjAddr: 0xC68, symBinAddr: 0x10000120C, symSize: 0x24 }
  - { offsetInCU: 0xA15D, offset: 0xA15D, size: 0x8, addend: 0x0, symName: __ZNSt3__122__compressed_pair_elemINS_21__unordered_map_equalIcNS_17__hash_value_typeIciEENS_8equal_toIcEENS_4hashIcEELb1EEELi1ELb1EEC2B7v160006ENS_18__default_init_tagE, symObjAddr: 0xC8C, symBinAddr: 0x100001230, symSize: 0x2C }
  - { offsetInCU: 0xA18F, offset: 0xA18F, size: 0x8, addend: 0x0, symName: __ZNSt3__121__unordered_map_equalIcNS_17__hash_value_typeIciEENS_8equal_toIcEENS_4hashIcEELb1EEC2B7v160006Ev, symObjAddr: 0xCB8, symBinAddr: 0x10000125C, symSize: 0x14 }
  - { offsetInCU: 0xA1B7, offset: 0xA1B7, size: 0x8, addend: 0x0, symName: __ZNSt3__112basic_stringIcNS_11char_traitsIcEENS_9allocatorIcEEE15__make_iteratorB7v160006EPc, symObjAddr: 0xCCC, symBinAddr: 0x100001270, symSize: 0x34 }
  - { offsetInCU: 0xA1EA, offset: 0xA1EA, size: 0x8, addend: 0x0, symName: __ZNSt3__112basic_stringIcNS_11char_traitsIcEENS_9allocatorIcEEE13__get_pointerB7v160006Ev, symObjAddr: 0xD00, symBinAddr: 0x1000012A4, symSize: 0x54 }
  - { offsetInCU: 0xA20E, offset: 0xA20E, size: 0x8, addend: 0x0, symName: __ZNSt3__111__wrap_iterIPcEC1B7v160006EPKvS1_, symObjAddr: 0xD54, symBinAddr: 0x1000012F8, symSize: 0x3C }
  - { offsetInCU: 0xA252, offset: 0xA252, size: 0x8, addend: 0x0, symName: __ZNSt3__111__wrap_iterIPcEC2B7v160006EPKvS1_, symObjAddr: 0xD90, symBinAddr: 0x100001334, symSize: 0x24 }
  - { offsetInCU: 0xA296, offset: 0xA296, size: 0x8, addend: 0x0, symName: __ZNKSt3__112basic_stringIcNS_11char_traitsIcEENS_9allocatorIcEEE9__is_longB7v160006Ev, symObjAddr: 0xDB4, symBinAddr: 0x100001358, symSize: 0x38 }
  - { offsetInCU: 0xA2BA, offset: 0xA2BA, size: 0x8, addend: 0x0, symName: __ZNSt3__112basic_stringIcNS_11char_traitsIcEENS_9allocatorIcEEE18__get_long_pointerB7v160006Ev, symObjAddr: 0xDEC, symBinAddr: 0x100001390, symSize: 0x28 }
  - { offsetInCU: 0xA2DE, offset: 0xA2DE, size: 0x8, addend: 0x0, symName: __ZNSt3__112basic_stringIcNS_11char_traitsIcEENS_9allocatorIcEEE19__get_short_pointerB7v160006Ev, symObjAddr: 0xE14, symBinAddr: 0x1000013B8, symSize: 0x28 }
  - { offsetInCU: 0xA302, offset: 0xA302, size: 0x8, addend: 0x0, symName: __ZNKSt3__117__compressed_pairINS_12basic_stringIcNS_11char_traitsIcEENS_9allocatorIcEEE5__repES5_E5firstB7v160006Ev, symObjAddr: 0xE3C, symBinAddr: 0x1000013E0, symSize: 0x24 }
  - { offsetInCU: 0xA326, offset: 0xA326, size: 0x8, addend: 0x0, symName: __ZNKSt3__122__compressed_pair_elemINS_12basic_stringIcNS_11char_traitsIcEENS_9allocatorIcEEE5__repELi0ELb0EE5__getB7v160006Ev, symObjAddr: 0xE60, symBinAddr: 0x100001404, symSize: 0x14 }
  - { offsetInCU: 0xA34A, offset: 0xA34A, size: 0x8, addend: 0x0, symName: __ZNSt3__117__compressed_pairINS_12basic_stringIcNS_11char_traitsIcEENS_9allocatorIcEEE5__repES5_E5firstB7v160006Ev, symObjAddr: 0xE74, symBinAddr: 0x100001418, symSize: 0x24 }
  - { offsetInCU: 0xA36E, offset: 0xA36E, size: 0x8, addend: 0x0, symName: __ZNSt3__122__compressed_pair_elemINS_12basic_stringIcNS_11char_traitsIcEENS_9allocatorIcEEE5__repELi0ELb0EE5__getB7v160006Ev, symObjAddr: 0xE98, symBinAddr: 0x10000143C, symSize: 0x14 }
  - { offsetInCU: 0xA392, offset: 0xA392, size: 0x8, addend: 0x0, symName: __ZNSt3__114pointer_traitsIPcE10pointer_toB7v160006ERc, symObjAddr: 0xEAC, symBinAddr: 0x100001450, symSize: 0x14 }
  - { offsetInCU: 0xA3B4, offset: 0xA3B4, size: 0x8, addend: 0x0, symName: __ZNKSt3__112basic_stringIcNS_11char_traitsIcEENS_9allocatorIcEEE4sizeB7v160006Ev, symObjAddr: 0xEC0, symBinAddr: 0x100001464, symSize: 0x54 }
  - { offsetInCU: 0xA3D8, offset: 0xA3D8, size: 0x8, addend: 0x0, symName: __ZNKSt3__112basic_stringIcNS_11char_traitsIcEENS_9allocatorIcEEE15__get_long_sizeB7v160006Ev, symObjAddr: 0xF14, symBinAddr: 0x1000014B8, symSize: 0x28 }
  - { offsetInCU: 0xA3FC, offset: 0xA3FC, size: 0x8, addend: 0x0, symName: __ZNKSt3__112basic_stringIcNS_11char_traitsIcEENS_9allocatorIcEEE16__get_short_sizeB7v160006Ev, symObjAddr: 0xF3C, symBinAddr: 0x1000014E0, symSize: 0x34 }
  - { offsetInCU: 0xA420, offset: 0xA420, size: 0x8, addend: 0x0, symName: __ZNKSt3__111__wrap_iterIPcE4baseB7v160006Ev, symObjAddr: 0xFB8, symBinAddr: 0x10000155C, symSize: 0x18 }
  - { offsetInCU: 0xA458, offset: 0xA458, size: 0x8, addend: 0x0, symName: __ZNSt3__112__hash_tableINS_17__hash_value_typeIciEENS_22__unordered_map_hasherIcS2_NS_4hashIcEENS_8equal_toIcEELb1EEENS_21__unordered_map_equalIcS2_S7_S5_Lb1EEENS_9allocatorIS2_EEE25__emplace_unique_key_argsIcJRKNS_21piecewise_construct_tENS_5tupleIJRKcEEENSI_IJEEEEEENS_4pairINS_15__hash_iteratorIPNS_11__hash_nodeIS2_PvEEEEbEERKT_DpOT0_, symObjAddr: 0xFD0, symBinAddr: 0x100001574, symSize: 0x4D0 }
  - { offsetInCU: 0xA55F, offset: 0xA55F, size: 0x8, addend: 0x0, symName: __ZNKSt3__115__hash_iteratorIPNS_11__hash_nodeINS_17__hash_value_typeIciEEPvEEEptB7v160006Ev, symObjAddr: 0x14D0, symBinAddr: 0x100001A74, symSize: 0x30 }
  - { offsetInCU: 0xA583, offset: 0xA583, size: 0x8, addend: 0x0, symName: __ZNSt3__117__hash_value_typeIciE11__get_valueB7v160006Ev, symObjAddr: 0x1500, symBinAddr: 0x100001AA4, symSize: 0x14 }
  - { offsetInCU: 0xA5A7, offset: 0xA5A7, size: 0x8, addend: 0x0, symName: __ZNSt3__112__hash_tableINS_17__hash_value_typeIciEENS_22__unordered_map_hasherIcS2_NS_4hashIcEENS_8equal_toIcEELb1EEENS_21__unordered_map_equalIcS2_S7_S5_Lb1EEENS_9allocatorIS2_EEE13hash_functionB7v160006Ev, symObjAddr: 0x1514, symBinAddr: 0x100001AB8, symSize: 0x28 }
  - { offsetInCU: 0xA5CB, offset: 0xA5CB, size: 0x8, addend: 0x0, symName: __ZNKSt3__122__unordered_map_hasherIcNS_17__hash_value_typeIciEENS_4hashIcEENS_8equal_toIcEELb1EEclB7v160006ERKc, symObjAddr: 0x153C, symBinAddr: 0x100001AE0, symSize: 0x30 }
  - { offsetInCU: 0xA5FE, offset: 0xA5FE, size: 0x8, addend: 0x0, symName: __ZNKSt3__112__hash_tableINS_17__hash_value_typeIciEENS_22__unordered_map_hasherIcS2_NS_4hashIcEENS_8equal_toIcEELb1EEENS_21__unordered_map_equalIcS2_S7_S5_Lb1EEENS_9allocatorIS2_EEE12bucket_countB7v160006Ev, symObjAddr: 0x156C, symBinAddr: 0x100001B10, symSize: 0x28 }
  - { offsetInCU: 0xA622, offset: 0xA622, size: 0x8, addend: 0x0, symName: __ZNKSt3__110unique_ptrIA_PNS_16__hash_node_baseIPNS_11__hash_nodeINS_17__hash_value_typeIciEEPvEEEENS_25__bucket_list_deallocatorINS_9allocatorIS9_EEEEEixB7v160006Em, symObjAddr: 0x162C, symBinAddr: 0x100001BD0, symSize: 0x34 }
  - { offsetInCU: 0xA655, offset: 0xA655, size: 0x8, addend: 0x0, symName: __ZNKSt3__116__hash_node_baseIPNS_11__hash_nodeINS_17__hash_value_typeIciEEPvEEE6__hashB7v160006Ev, symObjAddr: 0x1660, symBinAddr: 0x100001C04, symSize: 0x18 }
  - { offsetInCU: 0xA679, offset: 0xA679, size: 0x8, addend: 0x0, symName: __ZNSt3__112__hash_tableINS_17__hash_value_typeIciEENS_22__unordered_map_hasherIcS2_NS_4hashIcEENS_8equal_toIcEELb1EEENS_21__unordered_map_equalIcS2_S7_S5_Lb1EEENS_9allocatorIS2_EEE6key_eqB7v160006Ev, symObjAddr: 0x1678, symBinAddr: 0x100001C1C, symSize: 0x28 }
  - { offsetInCU: 0xA69D, offset: 0xA69D, size: 0x8, addend: 0x0, symName: __ZNKSt3__121__unordered_map_equalIcNS_17__hash_value_typeIciEENS_8equal_toIcEENS_4hashIcEELb1EEclB7v160006ERKS2_RKc, symObjAddr: 0x16A0, symBinAddr: 0x100001C44, symSize: 0x48 }
  - { offsetInCU: 0xA6DF, offset: 0xA6DF, size: 0x8, addend: 0x0, symName: __ZNSt3__116__hash_node_baseIPNS_11__hash_nodeINS_17__hash_value_typeIciEEPvEEE8__upcastB7v160006Ev, symObjAddr: 0x16E8, symBinAddr: 0x100001C8C, symSize: 0x24 }
  - { offsetInCU: 0xA703, offset: 0xA703, size: 0x8, addend: 0x0, symName: __ZNSt3__112__hash_tableINS_17__hash_value_typeIciEENS_22__unordered_map_hasherIcS2_NS_4hashIcEENS_8equal_toIcEELb1EEENS_21__unordered_map_equalIcS2_S7_S5_Lb1EEENS_9allocatorIS2_EEE21__construct_node_hashIRKNS_21piecewise_construct_tEJNS_5tupleIJRKcEEENSI_IJEEEEEENS_10unique_ptrINS_11__hash_nodeIS2_PvEENS_22__hash_node_destructorINSB_ISQ_EEEEEEmOT_DpOT0_, symObjAddr: 0x170C, symBinAddr: 0x100001CB0, symSize: 0x150 }
  - { offsetInCU: 0xA79D, offset: 0xA79D, size: 0x8, addend: 0x0, symName: __ZNSt3__112__hash_tableINS_17__hash_value_typeIciEENS_22__unordered_map_hasherIcS2_NS_4hashIcEENS_8equal_toIcEELb1EEENS_21__unordered_map_equalIcS2_S7_S5_Lb1EEENS_9allocatorIS2_EEE4sizeB7v160006Ev, symObjAddr: 0x185C, symBinAddr: 0x100001E00, symSize: 0x28 }
  - { offsetInCU: 0xA7C1, offset: 0xA7C1, size: 0x8, addend: 0x0, symName: __ZNSt3__112__hash_tableINS_17__hash_value_typeIciEENS_22__unordered_map_hasherIcS2_NS_4hashIcEENS_8equal_toIcEELb1EEENS_21__unordered_map_equalIcS2_S7_S5_Lb1EEENS_9allocatorIS2_EEE15max_load_factorB7v160006Ev, symObjAddr: 0x1884, symBinAddr: 0x100001E28, symSize: 0x28 }
  - { offsetInCU: 0xA7E5, offset: 0xA7E5, size: 0x8, addend: 0x0, symName: __ZNSt3__112__hash_tableINS_17__hash_value_typeIciEENS_22__unordered_map_hasherIcS2_NS_4hashIcEENS_8equal_toIcEELb1EEENS_21__unordered_map_equalIcS2_S7_S5_Lb1EEENS_9allocatorIS2_EEE15__rehash_uniqueB7v160006Em, symObjAddr: 0x18AC, symBinAddr: 0x100001E50, symSize: 0x2C }
  - { offsetInCU: 0xA818, offset: 0xA818, size: 0x8, addend: 0x0, symName: __Z4ceilB7v160006f, symObjAddr: 0x1954, symBinAddr: 0x100001EF8, symSize: 0x18 }
  - { offsetInCU: 0xA846, offset: 0xA846, size: 0x8, addend: 0x0, symName: __ZNSt3__117__compressed_pairINS_16__hash_node_baseIPNS_11__hash_nodeINS_17__hash_value_typeIciEEPvEEEENS_9allocatorIS6_EEE5firstB7v160006Ev, symObjAddr: 0x196C, symBinAddr: 0x100001F10, symSize: 0x24 }
  - { offsetInCU: 0xA86A, offset: 0xA86A, size: 0x8, addend: 0x0, symName: __ZNSt3__116__hash_node_baseIPNS_11__hash_nodeINS_17__hash_value_typeIciEEPvEEE5__ptrB7v160006Ev, symObjAddr: 0x1990, symBinAddr: 0x100001F34, symSize: 0x24 }
  - { offsetInCU: 0xA88E, offset: 0xA88E, size: 0x8, addend: 0x0, symName: __ZNKSt3__110unique_ptrINS_11__hash_nodeINS_17__hash_value_typeIciEEPvEENS_22__hash_node_destructorINS_9allocatorIS5_EEEEEptB7v160006Ev, symObjAddr: 0x19B4, symBinAddr: 0x100001F58, symSize: 0x28 }
  - { offsetInCU: 0xA8B2, offset: 0xA8B2, size: 0x8, addend: 0x0, symName: __ZNKSt3__110unique_ptrINS_11__hash_nodeINS_17__hash_value_typeIciEEPvEENS_22__hash_node_destructorINS_9allocatorIS5_EEEEE3getB7v160006Ev, symObjAddr: 0x19DC, symBinAddr: 0x100001F80, symSize: 0x28 }
  - { offsetInCU: 0xA8D6, offset: 0xA8D6, size: 0x8, addend: 0x0, symName: __ZNSt3__110unique_ptrINS_11__hash_nodeINS_17__hash_value_typeIciEEPvEENS_22__hash_node_destructorINS_9allocatorIS5_EEEEE7releaseB7v160006Ev, symObjAddr: 0x1A04, symBinAddr: 0x100001FA8, symSize: 0x44 }
  - { offsetInCU: 0xA909, offset: 0xA909, size: 0x8, addend: 0x0, symName: __ZNSt3__110unique_ptrINS_11__hash_nodeINS_17__hash_value_typeIciEEPvEENS_22__hash_node_destructorINS_9allocatorIS5_EEEEED1B7v160006Ev, symObjAddr: 0x1A48, symBinAddr: 0x100001FEC, symSize: 0x2C }
  - { offsetInCU: 0xA931, offset: 0xA931, size: 0x8, addend: 0x0, symName: __ZNSt3__115__hash_iteratorIPNS_11__hash_nodeINS_17__hash_value_typeIciEEPvEEEC1B7v160006EPNS_16__hash_node_baseIS6_EEPKv, symObjAddr: 0x1A74, symBinAddr: 0x100002018, symSize: 0x3C }
  - { offsetInCU: 0xA981, offset: 0xA981, size: 0x8, addend: 0x0, symName: __ZNSt3__14pairINS_15__hash_iteratorIPNS_11__hash_nodeINS_17__hash_value_typeIciEEPvEEEEbEC1B7v160006IS8_RbLS5_0EEEOT_OT0_, symObjAddr: 0x1AB0, symBinAddr: 0x100002054, symSize: 0x3C }
  - { offsetInCU: 0xA9DD, offset: 0xA9DD, size: 0x8, addend: 0x0, symName: __ZNSt3__117__compressed_pairImNS_22__unordered_map_hasherIcNS_17__hash_value_typeIciEENS_4hashIcEENS_8equal_toIcEELb1EEEE6secondB7v160006Ev, symObjAddr: 0x1AEC, symBinAddr: 0x100002090, symSize: 0x24 }
  - { offsetInCU: 0xAA01, offset: 0xAA01, size: 0x8, addend: 0x0, symName: __ZNSt3__122__compressed_pair_elemINS_22__unordered_map_hasherIcNS_17__hash_value_typeIciEENS_4hashIcEENS_8equal_toIcEELb1EEELi1ELb1EE5__getB7v160006Ev, symObjAddr: 0x1B10, symBinAddr: 0x1000020B4, symSize: 0x14 }
  - { offsetInCU: 0xAA25, offset: 0xAA25, size: 0x8, addend: 0x0, symName: __ZNKSt3__14hashIcEclB7v160006Ec, symObjAddr: 0x1B24, symBinAddr: 0x1000020C8, symSize: 0x18 }
  - { offsetInCU: 0xAA58, offset: 0xAA58, size: 0x8, addend: 0x0, symName: __ZNKSt3__110unique_ptrIA_PNS_16__hash_node_baseIPNS_11__hash_nodeINS_17__hash_value_typeIciEEPvEEEENS_25__bucket_list_deallocatorINS_9allocatorIS9_EEEEE11get_deleterB7v160006Ev, symObjAddr: 0x1B3C, symBinAddr: 0x1000020E0, symSize: 0x24 }
  - { offsetInCU: 0xAA7C, offset: 0xAA7C, size: 0x8, addend: 0x0, symName: __ZNKSt3__125__bucket_list_deallocatorINS_9allocatorIPNS_16__hash_node_baseIPNS_11__hash_nodeINS_17__hash_value_typeIciEEPvEEEEEEE4sizeB7v160006Ev, symObjAddr: 0x1B60, symBinAddr: 0x100002104, symSize: 0x28 }
  - { offsetInCU: 0xAAA0, offset: 0xAAA0, size: 0x8, addend: 0x0, symName: __ZNKSt3__117__compressed_pairIPPNS_16__hash_node_baseIPNS_11__hash_nodeINS_17__hash_value_typeIciEEPvEEEENS_25__bucket_list_deallocatorINS_9allocatorIS9_EEEEE6secondB7v160006Ev, symObjAddr: 0x1B88, symBinAddr: 0x10000212C, symSize: 0x28 }
  - { offsetInCU: 0xAAC4, offset: 0xAAC4, size: 0x8, addend: 0x0, symName: __ZNKSt3__122__compressed_pair_elemINS_25__bucket_list_deallocatorINS_9allocatorIPNS_16__hash_node_baseIPNS_11__hash_nodeINS_17__hash_value_typeIciEEPvEEEEEEEELi1ELb0EE5__getB7v160006Ev, symObjAddr: 0x1BB0, symBinAddr: 0x100002154, symSize: 0x14 }
  - { offsetInCU: 0xAAE8, offset: 0xAAE8, size: 0x8, addend: 0x0, symName: __ZNKSt3__117__compressed_pairImNS_9allocatorIPNS_16__hash_node_baseIPNS_11__hash_nodeINS_17__hash_value_typeIciEEPvEEEEEEE5firstB7v160006Ev, symObjAddr: 0x1BC4, symBinAddr: 0x100002168, symSize: 0x24 }
  - { offsetInCU: 0xAB0C, offset: 0xAB0C, size: 0x8, addend: 0x0, symName: __ZNKSt3__122__compressed_pair_elemImLi0ELb0EE5__getB7v160006Ev, symObjAddr: 0x1BE8, symBinAddr: 0x10000218C, symSize: 0x14 }
  - { offsetInCU: 0xAB30, offset: 0xAB30, size: 0x8, addend: 0x0, symName: __ZNKSt3__117__compressed_pairIPPNS_16__hash_node_baseIPNS_11__hash_nodeINS_17__hash_value_typeIciEEPvEEEENS_25__bucket_list_deallocatorINS_9allocatorIS9_EEEEE5firstB7v160006Ev, symObjAddr: 0x1BFC, symBinAddr: 0x1000021A0, symSize: 0x24 }
  - { offsetInCU: 0xAB54, offset: 0xAB54, size: 0x8, addend: 0x0, symName: __ZNKSt3__122__compressed_pair_elemIPPNS_16__hash_node_baseIPNS_11__hash_nodeINS_17__hash_value_typeIciEEPvEEEELi0ELb0EE5__getB7v160006Ev, symObjAddr: 0x1C20, symBinAddr: 0x1000021C4, symSize: 0x14 }
  - { offsetInCU: 0xAB78, offset: 0xAB78, size: 0x8, addend: 0x0, symName: __ZNSt3__117__compressed_pairIfNS_21__unordered_map_equalIcNS_17__hash_value_typeIciEENS_8equal_toIcEENS_4hashIcEELb1EEEE6secondB7v160006Ev, symObjAddr: 0x1C34, symBinAddr: 0x1000021D8, symSize: 0x24 }
  - { offsetInCU: 0xAB9C, offset: 0xAB9C, size: 0x8, addend: 0x0, symName: __ZNSt3__122__compressed_pair_elemINS_21__unordered_map_equalIcNS_17__hash_value_typeIciEENS_8equal_toIcEENS_4hashIcEELb1EEELi1ELb1EE5__getB7v160006Ev, symObjAddr: 0x1C58, symBinAddr: 0x1000021FC, symSize: 0x14 }
  - { offsetInCU: 0xABC0, offset: 0xABC0, size: 0x8, addend: 0x0, symName: __ZNKSt3__18equal_toIcEclB7v160006ERKcS3_, symObjAddr: 0x1C6C, symBinAddr: 0x100002210, symSize: 0x34 }
  - { offsetInCU: 0xAC02, offset: 0xAC02, size: 0x8, addend: 0x0, symName: __ZNKSt3__117__hash_value_typeIciE11__get_valueB7v160006Ev, symObjAddr: 0x1CA0, symBinAddr: 0x100002244, symSize: 0x14 }
  - { offsetInCU: 0xAC26, offset: 0xAC26, size: 0x8, addend: 0x0, symName: __ZNSt3__114pointer_traitsIPNS_16__hash_node_baseIPNS_11__hash_nodeINS_17__hash_value_typeIciEEPvEEEEE10pointer_toB7v160006ERS8_, symObjAddr: 0x1CB4, symBinAddr: 0x100002258, symSize: 0x14 }
  - { offsetInCU: 0xAC48, offset: 0xAC48, size: 0x8, addend: 0x0, symName: __ZNSt3__112__hash_tableINS_17__hash_value_typeIciEENS_22__unordered_map_hasherIcS2_NS_4hashIcEENS_8equal_toIcEELb1EEENS_21__unordered_map_equalIcS2_S7_S5_Lb1EEENS_9allocatorIS2_EEE12__node_allocB7v160006Ev, symObjAddr: 0x1CC8, symBinAddr: 0x10000226C, symSize: 0x28 }
  - { offsetInCU: 0xAC6D, offset: 0xAC6D, size: 0x8, addend: 0x0, symName: __ZNSt3__116allocator_traitsINS_9allocatorINS_11__hash_nodeINS_17__hash_value_typeIciEEPvEEEEE8allocateB7v160006ERS7_m, symObjAddr: 0x1CF0, symBinAddr: 0x100002294, symSize: 0x2C }
  - { offsetInCU: 0xAC9E, offset: 0xAC9E, size: 0x8, addend: 0x0, symName: __ZNSt3__122__hash_node_destructorINS_9allocatorINS_11__hash_nodeINS_17__hash_value_typeIciEEPvEEEEEC1B7v160006ERS7_b, symObjAddr: 0x1D1C, symBinAddr: 0x1000022C0, symSize: 0x48 }
  - { offsetInCU: 0xACE9, offset: 0xACE9, size: 0x8, addend: 0x0, symName: __ZNSt3__110unique_ptrINS_11__hash_nodeINS_17__hash_value_typeIciEEPvEENS_22__hash_node_destructorINS_9allocatorIS5_EEEEEC1B7v160006ILb1EvEEPS5_NS_16__dependent_typeINS_27__unique_ptr_deleter_sfinaeIS9_EEXT_EE20__good_rval_ref_typeE, symObjAddr: 0x1D64, symBinAddr: 0x100002308, symSize: 0x3C }
  - { offsetInCU: 0xAD39, offset: 0xAD39, size: 0x8, addend: 0x0, symName: __ZNSt3__116allocator_traitsINS_9allocatorINS_11__hash_nodeINS_17__hash_value_typeIciEEPvEEEEE9constructB7v160006INS_4pairIKciEEJRKNS_21piecewise_construct_tENS_5tupleIJRSB_EEENSG_IJEEEEvEEvRS7_PT_DpOT0_, symObjAddr: 0x1DA0, symBinAddr: 0x100002344, symSize: 0x44 }
  - { offsetInCU: 0xADB7, offset: 0xADB7, size: 0x8, addend: 0x0, symName: __ZNSt3__122__hash_key_value_typesINS_17__hash_value_typeIciEEE9__get_ptrB7v160006ERS2_, symObjAddr: 0x1DE4, symBinAddr: 0x100002388, symSize: 0x24 }
  - { offsetInCU: 0xADD8, offset: 0xADD8, size: 0x8, addend: 0x0, symName: __ZNSt3__110unique_ptrINS_11__hash_nodeINS_17__hash_value_typeIciEEPvEENS_22__hash_node_destructorINS_9allocatorIS5_EEEEE11get_deleterB7v160006Ev, symObjAddr: 0x1E08, symBinAddr: 0x1000023AC, symSize: 0x24 }
  - { offsetInCU: 0xADFC, offset: 0xADFC, size: 0x8, addend: 0x0, symName: __ZNSt3__117__compressed_pairINS_16__hash_node_baseIPNS_11__hash_nodeINS_17__hash_value_typeIciEEPvEEEENS_9allocatorIS6_EEE6secondB7v160006Ev, symObjAddr: 0x1E2C, symBinAddr: 0x1000023D0, symSize: 0x24 }
  - { offsetInCU: 0xAE20, offset: 0xAE20, size: 0x8, addend: 0x0, symName: __ZNSt3__122__compressed_pair_elemINS_9allocatorINS_11__hash_nodeINS_17__hash_value_typeIciEEPvEEEELi1ELb1EE5__getB7v160006Ev, symObjAddr: 0x1E50, symBinAddr: 0x1000023F4, symSize: 0x14 }
  - { offsetInCU: 0xAE44, offset: 0xAE44, size: 0x8, addend: 0x0, symName: __ZNSt3__19allocatorINS_11__hash_nodeINS_17__hash_value_typeIciEEPvEEE8allocateB7v160006Em, symObjAddr: 0x1E64, symBinAddr: 0x100002408, symSize: 0x5C }
  - { offsetInCU: 0xAE81, offset: 0xAE81, size: 0x8, addend: 0x0, symName: __ZNSt3__116allocator_traitsINS_9allocatorINS_11__hash_nodeINS_17__hash_value_typeIciEEPvEEEEE8max_sizeB7v160006IS7_vEEmRKS7_, symObjAddr: 0x1EC0, symBinAddr: 0x100002464, symSize: 0x24 }
  - { offsetInCU: 0xAEAD, offset: 0xAEAD, size: 0x8, addend: 0x0, symName: __ZNKSt3__19allocatorINS_11__hash_nodeINS_17__hash_value_typeIciEEPvEEE8max_sizeB7v160006Ev, symObjAddr: 0x1F40, symBinAddr: 0x1000024E4, symSize: 0x18 }
  - { offsetInCU: 0xAED1, offset: 0xAED1, size: 0x8, addend: 0x0, symName: __ZNSt3__122__hash_node_destructorINS_9allocatorINS_11__hash_nodeINS_17__hash_value_typeIciEEPvEEEEEC2B7v160006ERS7_b, symObjAddr: 0x1F7C, symBinAddr: 0x100002520, symSize: 0x38 }
  - { offsetInCU: 0xAF17, offset: 0xAF17, size: 0x8, addend: 0x0, symName: __ZNSt3__110unique_ptrINS_11__hash_nodeINS_17__hash_value_typeIciEEPvEENS_22__hash_node_destructorINS_9allocatorIS5_EEEEEC2B7v160006ILb1EvEEPS5_NS_16__dependent_typeINS_27__unique_ptr_deleter_sfinaeIS9_EEXT_EE20__good_rval_ref_typeE, symObjAddr: 0x1FB4, symBinAddr: 0x100002558, symSize: 0x48 }
  - { offsetInCU: 0xAF66, offset: 0xAF66, size: 0x8, addend: 0x0, symName: __ZNSt3__117__compressed_pairIPNS_11__hash_nodeINS_17__hash_value_typeIciEEPvEENS_22__hash_node_destructorINS_9allocatorIS5_EEEEEC1B7v160006IRS6_SA_EEOT_OT0_, symObjAddr: 0x1FFC, symBinAddr: 0x1000025A0, symSize: 0x3C }
  - { offsetInCU: 0xAFBC, offset: 0xAFBC, size: 0x8, addend: 0x0, symName: __ZNSt3__117__compressed_pairIPNS_11__hash_nodeINS_17__hash_value_typeIciEEPvEENS_22__hash_node_destructorINS_9allocatorIS5_EEEEEC2B7v160006IRS6_SA_EEOT_OT0_, symObjAddr: 0x2038, symBinAddr: 0x1000025DC, symSize: 0x48 }
  - { offsetInCU: 0xB012, offset: 0xB012, size: 0x8, addend: 0x0, symName: __ZNSt3__122__compressed_pair_elemIPNS_11__hash_nodeINS_17__hash_value_typeIciEEPvEELi0ELb0EEC2B7v160006IRS6_vEEOT_, symObjAddr: 0x2080, symBinAddr: 0x100002624, symSize: 0x24 }
  - { offsetInCU: 0xB052, offset: 0xB052, size: 0x8, addend: 0x0, symName: __ZNSt3__122__compressed_pair_elemINS_22__hash_node_destructorINS_9allocatorINS_11__hash_nodeINS_17__hash_value_typeIciEEPvEEEEEELi1ELb0EEC2B7v160006IS9_vEEOT_, symObjAddr: 0x20A4, symBinAddr: 0x100002648, symSize: 0x24 }
  - { offsetInCU: 0xB092, offset: 0xB092, size: 0x8, addend: 0x0, symName: __ZNSt3__19allocatorINS_11__hash_nodeINS_17__hash_value_typeIciEEPvEEE9constructB7v160006INS_4pairIKciEEJRKNS_21piecewise_construct_tENS_5tupleIJRS9_EEENSE_IJEEEEEEvPT_DpOT0_, symObjAddr: 0x20C8, symBinAddr: 0x10000266C, symSize: 0x44 }
  - { offsetInCU: 0xB10C, offset: 0xB10C, size: 0x8, addend: 0x0, symName: __ZNSt3__14pairIKciEC1B7v160006IJRS1_EJEEENS_21piecewise_construct_tENS_5tupleIJDpT_EEENS6_IJDpT0_EEE, symObjAddr: 0x210C, symBinAddr: 0x1000026B0, symSize: 0x44 }
  - { offsetInCU: 0xB172, offset: 0xB172, size: 0x8, addend: 0x0, symName: __ZNSt3__14pairIKciEC1B7v160006IJRS1_EJEJLm0EEJEEENS_21piecewise_construct_tERNS_5tupleIJDpT_EEERNS6_IJDpT0_EEENS_15__tuple_indicesIJXspT1_EEEENSF_IJXspT2_EEEE, symObjAddr: 0x2150, symBinAddr: 0x1000026F4, symSize: 0x3C }
  - { offsetInCU: 0xB1FD, offset: 0xB1FD, size: 0x8, addend: 0x0, symName: __ZNSt3__14pairIKciEC2B7v160006IJRS1_EJEJLm0EEJEEENS_21piecewise_construct_tERNS_5tupleIJDpT_EEERNS6_IJDpT0_EEENS_15__tuple_indicesIJXspT1_EEEENSF_IJXspT2_EEEE, symObjAddr: 0x218C, symBinAddr: 0x100002730, symSize: 0x48 }
  - { offsetInCU: 0xB287, offset: 0xB287, size: 0x8, addend: 0x0, symName: __ZNSt3__112__tuple_leafILm0ERKcLb0EE3getB7v160006Ev, symObjAddr: 0x21F8, symBinAddr: 0x10000279C, symSize: 0x18 }
  - { offsetInCU: 0xB2AB, offset: 0xB2AB, size: 0x8, addend: 0x0, symName: __ZNSt3__117__compressed_pairIPNS_11__hash_nodeINS_17__hash_value_typeIciEEPvEENS_22__hash_node_destructorINS_9allocatorIS5_EEEEE6secondB7v160006Ev, symObjAddr: 0x2210, symBinAddr: 0x1000027B4, symSize: 0x28 }
  - { offsetInCU: 0xB2CF, offset: 0xB2CF, size: 0x8, addend: 0x0, symName: __ZNSt3__122__compressed_pair_elemINS_22__hash_node_destructorINS_9allocatorINS_11__hash_nodeINS_17__hash_value_typeIciEEPvEEEEEELi1ELb0EE5__getB7v160006Ev, symObjAddr: 0x2238, symBinAddr: 0x1000027DC, symSize: 0x14 }
  - { offsetInCU: 0xB2F3, offset: 0xB2F3, size: 0x8, addend: 0x0, symName: __ZNSt3__117__compressed_pairImNS_22__unordered_map_hasherIcNS_17__hash_value_typeIciEENS_4hashIcEENS_8equal_toIcEELb1EEEE5firstB7v160006Ev, symObjAddr: 0x224C, symBinAddr: 0x1000027F0, symSize: 0x24 }
  - { offsetInCU: 0xB317, offset: 0xB317, size: 0x8, addend: 0x0, symName: __ZNSt3__122__compressed_pair_elemImLi0ELb0EE5__getB7v160006Ev, symObjAddr: 0x2270, symBinAddr: 0x100002814, symSize: 0x14 }
  - { offsetInCU: 0xB33B, offset: 0xB33B, size: 0x8, addend: 0x0, symName: __ZNSt3__117__compressed_pairIfNS_21__unordered_map_equalIcNS_17__hash_value_typeIciEENS_8equal_toIcEENS_4hashIcEELb1EEEE5firstB7v160006Ev, symObjAddr: 0x2284, symBinAddr: 0x100002828, symSize: 0x24 }
  - { offsetInCU: 0xB35F, offset: 0xB35F, size: 0x8, addend: 0x0, symName: __ZNSt3__122__compressed_pair_elemIfLi0ELb0EE5__getB7v160006Ev, symObjAddr: 0x22A8, symBinAddr: 0x10000284C, symSize: 0x14 }
  - { offsetInCU: 0xB383, offset: 0xB383, size: 0x8, addend: 0x0, symName: __ZNSt3__112__hash_tableINS_17__hash_value_typeIciEENS_22__unordered_map_hasherIcS2_NS_4hashIcEENS_8equal_toIcEELb1EEENS_21__unordered_map_equalIcS2_S7_S5_Lb1EEENS_9allocatorIS2_EEE8__rehashILb1EEEvm, symObjAddr: 0x22BC, symBinAddr: 0x100002860, symSize: 0x1A8 }
  - { offsetInCU: 0xB3D1, offset: 0xB3D1, size: 0x8, addend: 0x0, symName: __ZNSt3__112__hash_tableINS_17__hash_value_typeIciEENS_22__unordered_map_hasherIcS2_NS_4hashIcEENS_8equal_toIcEELb1EEENS_21__unordered_map_equalIcS2_S7_S5_Lb1EEENS_9allocatorIS2_EEE11__do_rehashILb1EEEvm, symObjAddr: 0x2464, symBinAddr: 0x100002A08, symSize: 0x290 }
  - { offsetInCU: 0xB4B2, offset: 0xB4B2, size: 0x8, addend: 0x0, symName: __ZNSt3__110unique_ptrIA_PNS_16__hash_node_baseIPNS_11__hash_nodeINS_17__hash_value_typeIciEEPvEEEENS_25__bucket_list_deallocatorINS_9allocatorIS9_EEEEE11get_deleterB7v160006Ev, symObjAddr: 0x2770, symBinAddr: 0x100002D14, symSize: 0x24 }
  - { offsetInCU: 0xB4D6, offset: 0xB4D6, size: 0x8, addend: 0x0, symName: __ZNSt3__125__bucket_list_deallocatorINS_9allocatorIPNS_16__hash_node_baseIPNS_11__hash_nodeINS_17__hash_value_typeIciEEPvEEEEEEE7__allocB7v160006Ev, symObjAddr: 0x2794, symBinAddr: 0x100002D38, symSize: 0x24 }
  - { offsetInCU: 0xB4FA, offset: 0xB4FA, size: 0x8, addend: 0x0, symName: __ZNSt3__110unique_ptrIA_PNS_16__hash_node_baseIPNS_11__hash_nodeINS_17__hash_value_typeIciEEPvEEEENS_25__bucket_list_deallocatorINS_9allocatorIS9_EEEEE5resetB7v160006IPS9_EENS_9enable_ifIXsr28_CheckArrayPointerConversionIT_EE5valueEvE4typeESJ_, symObjAddr: 0x27B8, symBinAddr: 0x100002D5C, symSize: 0x78 }
  - { offsetInCU: 0xB546, offset: 0xB546, size: 0x8, addend: 0x0, symName: __ZNSt3__116allocator_traitsINS_9allocatorIPNS_16__hash_node_baseIPNS_11__hash_nodeINS_17__hash_value_typeIciEEPvEEEEEEE8allocateB7v160006ERSB_m, symObjAddr: 0x2830, symBinAddr: 0x100002DD4, symSize: 0x2C }
  - { offsetInCU: 0xB577, offset: 0xB577, size: 0x8, addend: 0x0, symName: __ZNSt3__125__bucket_list_deallocatorINS_9allocatorIPNS_16__hash_node_baseIPNS_11__hash_nodeINS_17__hash_value_typeIciEEPvEEEEEEE4sizeB7v160006Ev, symObjAddr: 0x285C, symBinAddr: 0x100002E00, symSize: 0x24 }
  - { offsetInCU: 0xB59B, offset: 0xB59B, size: 0x8, addend: 0x0, symName: __ZNSt3__117__compressed_pairIPPNS_16__hash_node_baseIPNS_11__hash_nodeINS_17__hash_value_typeIciEEPvEEEENS_25__bucket_list_deallocatorINS_9allocatorIS9_EEEEE6secondB7v160006Ev, symObjAddr: 0x2880, symBinAddr: 0x100002E24, symSize: 0x28 }
  - { offsetInCU: 0xB5BF, offset: 0xB5BF, size: 0x8, addend: 0x0, symName: __ZNSt3__122__compressed_pair_elemINS_25__bucket_list_deallocatorINS_9allocatorIPNS_16__hash_node_baseIPNS_11__hash_nodeINS_17__hash_value_typeIciEEPvEEEEEEEELi1ELb0EE5__getB7v160006Ev, symObjAddr: 0x28A8, symBinAddr: 0x100002E4C, symSize: 0x14 }
  - { offsetInCU: 0xB5E3, offset: 0xB5E3, size: 0x8, addend: 0x0, symName: __ZNSt3__117__compressed_pairImNS_9allocatorIPNS_16__hash_node_baseIPNS_11__hash_nodeINS_17__hash_value_typeIciEEPvEEEEEEE6secondB7v160006Ev, symObjAddr: 0x28BC, symBinAddr: 0x100002E60, symSize: 0x24 }
  - { offsetInCU: 0xB607, offset: 0xB607, size: 0x8, addend: 0x0, symName: __ZNSt3__122__compressed_pair_elemINS_9allocatorIPNS_16__hash_node_baseIPNS_11__hash_nodeINS_17__hash_value_typeIciEEPvEEEEEELi1ELb1EE5__getB7v160006Ev, symObjAddr: 0x28E0, symBinAddr: 0x100002E84, symSize: 0x14 }
  - { offsetInCU: 0xB62B, offset: 0xB62B, size: 0x8, addend: 0x0, symName: __ZNSt3__117__compressed_pairIPPNS_16__hash_node_baseIPNS_11__hash_nodeINS_17__hash_value_typeIciEEPvEEEENS_25__bucket_list_deallocatorINS_9allocatorIS9_EEEEE5firstB7v160006Ev, symObjAddr: 0x28F4, symBinAddr: 0x100002E98, symSize: 0x24 }
  - { offsetInCU: 0xB64F, offset: 0xB64F, size: 0x8, addend: 0x0, symName: __ZNSt3__125__bucket_list_deallocatorINS_9allocatorIPNS_16__hash_node_baseIPNS_11__hash_nodeINS_17__hash_value_typeIciEEPvEEEEEEEclB7v160006EPSA_, symObjAddr: 0x2918, symBinAddr: 0x100002EBC, symSize: 0x58 }
  - { offsetInCU: 0xB682, offset: 0xB682, size: 0x8, addend: 0x0, symName: __ZNSt3__122__compressed_pair_elemIPPNS_16__hash_node_baseIPNS_11__hash_nodeINS_17__hash_value_typeIciEEPvEEEELi0ELb0EE5__getB7v160006Ev, symObjAddr: 0x2970, symBinAddr: 0x100002F14, symSize: 0x14 }
  - { offsetInCU: 0xB6A7, offset: 0xB6A7, size: 0x8, addend: 0x0, symName: __ZNSt3__116allocator_traitsINS_9allocatorIPNS_16__hash_node_baseIPNS_11__hash_nodeINS_17__hash_value_typeIciEEPvEEEEEEE10deallocateB7v160006ERSB_PSA_m, symObjAddr: 0x2984, symBinAddr: 0x100002F28, symSize: 0x34 }
  - { offsetInCU: 0xB6E7, offset: 0xB6E7, size: 0x8, addend: 0x0, symName: __ZNSt3__19allocatorIPNS_16__hash_node_baseIPNS_11__hash_nodeINS_17__hash_value_typeIciEEPvEEEEE10deallocateB7v160006EPS9_m, symObjAddr: 0x29B8, symBinAddr: 0x100002F5C, symSize: 0x40 }
  - { offsetInCU: 0xB727, offset: 0xB727, size: 0x8, addend: 0x0, symName: __ZNSt3__19allocatorIPNS_16__hash_node_baseIPNS_11__hash_nodeINS_17__hash_value_typeIciEEPvEEEEE8allocateB7v160006Em, symObjAddr: 0x2A74, symBinAddr: 0x100003018, symSize: 0x58 }
  - { offsetInCU: 0xB764, offset: 0xB764, size: 0x8, addend: 0x0, symName: __ZNSt3__116allocator_traitsINS_9allocatorIPNS_16__hash_node_baseIPNS_11__hash_nodeINS_17__hash_value_typeIciEEPvEEEEEEE8max_sizeB7v160006ISB_vEEmRKSB_, symObjAddr: 0x2ACC, symBinAddr: 0x100003070, symSize: 0x24 }
  - { offsetInCU: 0xB790, offset: 0xB790, size: 0x8, addend: 0x0, symName: __ZNKSt3__19allocatorIPNS_16__hash_node_baseIPNS_11__hash_nodeINS_17__hash_value_typeIciEEPvEEEEE8max_sizeB7v160006Ev, symObjAddr: 0x2AF0, symBinAddr: 0x100003094, symSize: 0x14 }
  - { offsetInCU: 0xB7B4, offset: 0xB7B4, size: 0x8, addend: 0x0, symName: __ZNSt3__117__compressed_pairImNS_9allocatorIPNS_16__hash_node_baseIPNS_11__hash_nodeINS_17__hash_value_typeIciEEPvEEEEEEE5firstB7v160006Ev, symObjAddr: 0x2B04, symBinAddr: 0x1000030A8, symSize: 0x24 }
  - { offsetInCU: 0xB7E2, offset: 0xB7E2, size: 0x8, addend: 0x0, symName: __ZNKSt3__16__lessImmEclB7v160006ERKmS3_, symObjAddr: 0x2B98, symBinAddr: 0x10000313C, symSize: 0x34 }
  - { offsetInCU: 0xB822, offset: 0xB822, size: 0x8, addend: 0x0, symName: __ZNSt3__122__compressed_pair_elemINS_16__hash_node_baseIPNS_11__hash_nodeINS_17__hash_value_typeIciEEPvEEEELi0ELb0EE5__getB7v160006Ev, symObjAddr: 0x2BCC, symBinAddr: 0x100003170, symSize: 0x14 }
  - { offsetInCU: 0xB846, offset: 0xB846, size: 0x8, addend: 0x0, symName: __ZNKSt3__117__compressed_pairIPNS_11__hash_nodeINS_17__hash_value_typeIciEEPvEENS_22__hash_node_destructorINS_9allocatorIS5_EEEEE5firstB7v160006Ev, symObjAddr: 0x2BE0, symBinAddr: 0x100003184, symSize: 0x24 }
  - { offsetInCU: 0xB86A, offset: 0xB86A, size: 0x8, addend: 0x0, symName: __ZNKSt3__122__compressed_pair_elemIPNS_11__hash_nodeINS_17__hash_value_typeIciEEPvEELi0ELb0EE5__getB7v160006Ev, symObjAddr: 0x2C04, symBinAddr: 0x1000031A8, symSize: 0x14 }
  - { offsetInCU: 0xB88E, offset: 0xB88E, size: 0x8, addend: 0x0, symName: __ZNSt3__117__compressed_pairIPNS_11__hash_nodeINS_17__hash_value_typeIciEEPvEENS_22__hash_node_destructorINS_9allocatorIS5_EEEEE5firstB7v160006Ev, symObjAddr: 0x2C18, symBinAddr: 0x1000031BC, symSize: 0x24 }
  - { offsetInCU: 0xB8B2, offset: 0xB8B2, size: 0x8, addend: 0x0, symName: __ZNSt3__122__compressed_pair_elemIPNS_11__hash_nodeINS_17__hash_value_typeIciEEPvEELi0ELb0EE5__getB7v160006Ev, symObjAddr: 0x2C3C, symBinAddr: 0x1000031E0, symSize: 0x14 }
  - { offsetInCU: 0xB8D6, offset: 0xB8D6, size: 0x8, addend: 0x0, symName: __ZNSt3__110unique_ptrINS_11__hash_nodeINS_17__hash_value_typeIciEEPvEENS_22__hash_node_destructorINS_9allocatorIS5_EEEEED2B7v160006Ev, symObjAddr: 0x2C50, symBinAddr: 0x1000031F4, symSize: 0x30 }
  - { offsetInCU: 0xB8FE, offset: 0xB8FE, size: 0x8, addend: 0x0, symName: __ZNSt3__110unique_ptrINS_11__hash_nodeINS_17__hash_value_typeIciEEPvEENS_22__hash_node_destructorINS_9allocatorIS5_EEEEE5resetB7v160006EPS5_, symObjAddr: 0x2C80, symBinAddr: 0x100003224, symSize: 0x78 }
  - { offsetInCU: 0xB940, offset: 0xB940, size: 0x8, addend: 0x0, symName: __ZNSt3__122__hash_node_destructorINS_9allocatorINS_11__hash_nodeINS_17__hash_value_typeIciEEPvEEEEEclB7v160006EPS6_, symObjAddr: 0x2CF8, symBinAddr: 0x10000329C, symSize: 0x98 }
  - { offsetInCU: 0xB973, offset: 0xB973, size: 0x8, addend: 0x0, symName: __ZNSt3__116allocator_traitsINS_9allocatorINS_11__hash_nodeINS_17__hash_value_typeIciEEPvEEEEE7destroyB7v160006INS_4pairIKciEEvvEEvRS7_PT_, symObjAddr: 0x2D90, symBinAddr: 0x100003334, symSize: 0x14 }
  - { offsetInCU: 0xB9AD, offset: 0xB9AD, size: 0x8, addend: 0x0, symName: __ZNSt3__116allocator_traitsINS_9allocatorINS_11__hash_nodeINS_17__hash_value_typeIciEEPvEEEEE10deallocateB7v160006ERS7_PS6_m, symObjAddr: 0x2DA4, symBinAddr: 0x100003348, symSize: 0x34 }
  - { offsetInCU: 0xB9ED, offset: 0xB9ED, size: 0x8, addend: 0x0, symName: __ZNSt3__19allocatorINS_11__hash_nodeINS_17__hash_value_typeIciEEPvEEE10deallocateB7v160006EPS5_m, symObjAddr: 0x2DD8, symBinAddr: 0x10000337C, symSize: 0x44 }
  - { offsetInCU: 0xBA2D, offset: 0xBA2D, size: 0x8, addend: 0x0, symName: __ZNSt3__115__hash_iteratorIPNS_11__hash_nodeINS_17__hash_value_typeIciEEPvEEEC2B7v160006EPNS_16__hash_node_baseIS6_EEPKv, symObjAddr: 0x2E1C, symBinAddr: 0x1000033C0, symSize: 0x24 }
  - { offsetInCU: 0xBA73, offset: 0xBA73, size: 0x8, addend: 0x0, symName: __ZNSt3__14pairINS_15__hash_iteratorIPNS_11__hash_nodeINS_17__hash_value_typeIciEEPvEEEEbEC2B7v160006IS8_RbLS5_0EEEOT_OT0_, symObjAddr: 0x2E40, symBinAddr: 0x1000033E4, symSize: 0x38 }
  - { offsetInCU: 0xBACF, offset: 0xBACF, size: 0x8, addend: 0x0, symName: __ZNSt3__15tupleIJRKcEEC1B7v160006INS_4_AndELi0EEES2_, symObjAddr: 0x2E78, symBinAddr: 0x10000341C, symSize: 0x34 }
  - { offsetInCU: 0xBB15, offset: 0xBB15, size: 0x8, addend: 0x0, symName: __ZNSt3__15tupleIJRKcEEC2B7v160006INS_4_AndELi0EEES2_, symObjAddr: 0x2EAC, symBinAddr: 0x100003450, symSize: 0x34 }
  - { offsetInCU: 0xBB5B, offset: 0xBB5B, size: 0x8, addend: 0x0, symName: __ZNSt3__112__tuple_implINS_15__tuple_indicesIJLm0EEEEJRKcEEC1B7v160006IJLm0EEJS4_EJEJEJS4_EEENS1_IJXspT_EEEENS_13__tuple_typesIJDpT0_EEENS1_IJXspT1_EEEENS8_IJDpT2_EEEDpOT3_, symObjAddr: 0x2EE0, symBinAddr: 0x100003484, symSize: 0x34 }
  - { offsetInCU: 0xBBEA, offset: 0xBBEA, size: 0x8, addend: 0x0, symName: __ZNSt3__112__tuple_implINS_15__tuple_indicesIJLm0EEEEJRKcEEC2B7v160006IJLm0EEJS4_EJEJEJS4_EEENS1_IJXspT_EEEENS_13__tuple_typesIJDpT0_EEENS1_IJXspT1_EEEENS8_IJDpT2_EEEDpOT3_, symObjAddr: 0x2F14, symBinAddr: 0x1000034B8, symSize: 0x34 }
  - { offsetInCU: 0xBC79, offset: 0xBC79, size: 0x8, addend: 0x0, symName: __ZNSt3__112__tuple_leafILm0ERKcLb0EEC2B7v160006IS2_vEEOT_, symObjAddr: 0x2F48, symBinAddr: 0x1000034EC, symSize: 0x20 }
  - { offsetInCU: 0xBCBA, offset: 0xBCBA, size: 0x8, addend: 0x0, symName: __ZNSt3__114pointer_traitsIPNS_17__hash_value_typeIciEEE10pointer_toB7v160006ERS2_, symObjAddr: 0x2F68, symBinAddr: 0x10000350C, symSize: 0x14 }
  - { offsetInCU: 0xBCDC, offset: 0xBCDC, size: 0x8, addend: 0x0, symName: __ZNSt3__112__hash_tableINS_17__hash_value_typeIciEENS_22__unordered_map_hasherIcS2_NS_4hashIcEENS_8equal_toIcEELb1EEENS_21__unordered_map_equalIcS2_S7_S5_Lb1EEENS_9allocatorIS2_EEE5beginEv, symObjAddr: 0x2F7C, symBinAddr: 0x100003520, symSize: 0x40 }
  - { offsetInCU: 0xBD02, offset: 0xBD02, size: 0x8, addend: 0x0, symName: __ZNSt3__119__hash_map_iteratorINS_15__hash_iteratorIPNS_11__hash_nodeINS_17__hash_value_typeIciEEPvEEEEEC1B7v160006ES8_, symObjAddr: 0x2FBC, symBinAddr: 0x100003560, symSize: 0x34 }
  - { offsetInCU: 0xBD39, offset: 0xBD39, size: 0x8, addend: 0x0, symName: __ZNSt3__119__hash_map_iteratorINS_15__hash_iteratorIPNS_11__hash_nodeINS_17__hash_value_typeIciEEPvEEEEEC2B7v160006ES8_, symObjAddr: 0x2FF0, symBinAddr: 0x100003594, symSize: 0x20 }
  - { offsetInCU: 0xBD70, offset: 0xBD70, size: 0x8, addend: 0x0, symName: __ZNSt3__112__hash_tableINS_17__hash_value_typeIciEENS_22__unordered_map_hasherIcS2_NS_4hashIcEENS_8equal_toIcEELb1EEENS_21__unordered_map_equalIcS2_S7_S5_Lb1EEENS_9allocatorIS2_EEE3endEv, symObjAddr: 0x3010, symBinAddr: 0x1000035B4, symSize: 0x30 }
  - { offsetInCU: 0xBD96, offset: 0xBD96, size: 0x8, addend: 0x0, symName: __ZNSt3__115__hash_iteratorIPNS_11__hash_nodeINS_17__hash_value_typeIciEEPvEEEppB7v160006Ev, symObjAddr: 0x30A4, symBinAddr: 0x100003648, symSize: 0x20 }
  - { offsetInCU: 0xBDBA, offset: 0xBDBA, size: 0x8, addend: 0x0, symName: __ZNSt3__113unordered_mapIciNS_4hashIcEENS_8equal_toIcEENS_9allocatorINS_4pairIKciEEEEED2B7v160006Ev, symObjAddr: 0x30C4, symBinAddr: 0x100003668, symSize: 0x2C }
  - { offsetInCU: 0xBDE2, offset: 0xBDE2, size: 0x8, addend: 0x0, symName: __ZNSt3__112__hash_tableINS_17__hash_value_typeIciEENS_22__unordered_map_hasherIcS2_NS_4hashIcEENS_8equal_toIcEELb1EEENS_21__unordered_map_equalIcS2_S7_S5_Lb1EEENS_9allocatorIS2_EEED1Ev, symObjAddr: 0x30F0, symBinAddr: 0x100003694, symSize: 0x2C }
  - { offsetInCU: 0xBE0C, offset: 0xBE0C, size: 0x8, addend: 0x0, symName: __ZNSt3__112__hash_tableINS_17__hash_value_typeIciEENS_22__unordered_map_hasherIcS2_NS_4hashIcEENS_8equal_toIcEELb1EEENS_21__unordered_map_equalIcS2_S7_S5_Lb1EEENS_9allocatorIS2_EEED2Ev, symObjAddr: 0x311C, symBinAddr: 0x1000036C0, symSize: 0x58 }
  - { offsetInCU: 0xBE36, offset: 0xBE36, size: 0x8, addend: 0x0, symName: __ZNSt3__112__hash_tableINS_17__hash_value_typeIciEENS_22__unordered_map_hasherIcS2_NS_4hashIcEENS_8equal_toIcEELb1EEENS_21__unordered_map_equalIcS2_S7_S5_Lb1EEENS_9allocatorIS2_EEE17__deallocate_nodeEPNS_16__hash_node_baseIPNS_11__hash_nodeIS2_PvEEEE, symObjAddr: 0x3174, symBinAddr: 0x100003718, symSize: 0xA4 }
  - { offsetInCU: 0xBE9E, offset: 0xBE9E, size: 0x8, addend: 0x0, symName: __ZNSt3__110unique_ptrIA_PNS_16__hash_node_baseIPNS_11__hash_nodeINS_17__hash_value_typeIciEEPvEEEENS_25__bucket_list_deallocatorINS_9allocatorIS9_EEEEED1B7v160006Ev, symObjAddr: 0x3228, symBinAddr: 0x1000037CC, symSize: 0x2C }
  - { offsetInCU: 0xBEC6, offset: 0xBEC6, size: 0x8, addend: 0x0, symName: __ZNSt3__110unique_ptrIA_PNS_16__hash_node_baseIPNS_11__hash_nodeINS_17__hash_value_typeIciEEPvEEEENS_25__bucket_list_deallocatorINS_9allocatorIS9_EEEEED2B7v160006Ev, symObjAddr: 0x3254, symBinAddr: 0x1000037F8, symSize: 0x30 }
  - { offsetInCU: 0xBEEE, offset: 0xBEEE, size: 0x8, addend: 0x0, symName: __ZNSt3__110unique_ptrIA_PNS_16__hash_node_baseIPNS_11__hash_nodeINS_17__hash_value_typeIciEEPvEEEENS_25__bucket_list_deallocatorINS_9allocatorIS9_EEEEE5resetB7v160006EDn, symObjAddr: 0x3284, symBinAddr: 0x100003828, symSize: 0x6C }
  - { offsetInCU: 0xBF2C, offset: 0xBF2C, size: 0x8, addend: 0x0, symName: __ZNSt3__112basic_stringIcNS_11char_traitsIcEENS_9allocatorIcEEEC2B7v160006IDnEEPKc, symObjAddr: 0x32F0, symBinAddr: 0x100003894, symSize: 0x60 }
  - { offsetInCU: 0xBF68, offset: 0xBF68, size: 0x8, addend: 0x0, symName: __ZNSt3__117__compressed_pairINS_12basic_stringIcNS_11char_traitsIcEENS_9allocatorIcEEE5__repES5_EC1B7v160006INS_18__default_init_tagESA_EEOT_OT0_, symObjAddr: 0x3350, symBinAddr: 0x1000038F4, symSize: 0x3C }
  - { offsetInCU: 0xBFBF, offset: 0xBFBF, size: 0x8, addend: 0x0, symName: __ZNSt3__111char_traitsIcE6lengthEPKc, symObjAddr: 0x338C, symBinAddr: 0x100003930, symSize: 0x34 }
  - { offsetInCU: 0xBFE0, offset: 0xBFE0, size: 0x8, addend: 0x0, symName: __ZNSt3__117__compressed_pairINS_12basic_stringIcNS_11char_traitsIcEENS_9allocatorIcEEE5__repES5_EC2B7v160006INS_18__default_init_tagESA_EEOT_OT0_, symObjAddr: 0x33D0, symBinAddr: 0x100003974, symSize: 0x3C }
  - { offsetInCU: 0xC036, offset: 0xC036, size: 0x8, addend: 0x0, symName: __ZNSt3__122__compressed_pair_elemINS_12basic_stringIcNS_11char_traitsIcEENS_9allocatorIcEEE5__repELi0ELb0EEC2B7v160006ENS_18__default_init_tagE, symObjAddr: 0x340C, symBinAddr: 0x1000039B0, symSize: 0x14 }
  - { offsetInCU: 0xC068, offset: 0xC068, size: 0x8, addend: 0x0, symName: __ZNSt3__122__compressed_pair_elemINS_9allocatorIcEELi1ELb1EEC2B7v160006ENS_18__default_init_tagE, symObjAddr: 0x3420, symBinAddr: 0x1000039C4, symSize: 0x2C }
  - { offsetInCU: 0xC09A, offset: 0xC09A, size: 0x8, addend: 0x0, symName: __ZNSt3__19allocatorIcEC2B7v160006Ev, symObjAddr: 0x344C, symBinAddr: 0x1000039F0, symSize: 0x2C }
  - { offsetInCU: 0xC0C2, offset: 0xC0C2, size: 0x8, addend: 0x0, symName: __ZNSt3__116__non_trivial_ifILb1ENS_9allocatorIcEEEC2B7v160006Ev, symObjAddr: 0x3478, symBinAddr: 0x100003A1C, symSize: 0x14 }
...
